; Function Attrs: nounwind uwtable
define internal void @GetEntropyUnrefined_C(ptr nocapture noundef readonly %0, i32 noundef %1, ptr nocapture noundef %2, ptr nocapture noundef %3) #1 {
  %5 = load i32, ptr %0, align 4
  tail call void @llvm.memset.p0.i64(ptr noundef nonnull align 4 dereferenceable(24) %3, i8 0, i64 24, i1 false)
  %6 = getelementptr inbounds i8, ptr %2, i64 16
  tail call void @llvm.memset.p0.i64(ptr noundef nonnull align 4 dereferenceable(16) %2, i8 0, i64 16, i1 false)
  store i32 -1, ptr %6, align 4
  %7 = icmp sgt i32 %1, 1
  br i1 %7, label %.lr.ph, label %._crit_edge

.lr.ph:                                           ; preds = %4
  %8 = getelementptr inbounds i8, ptr %2, i64 4
  %9 = getelementptr inbounds i8, ptr %2, i64 8
  %10 = getelementptr inbounds i8, ptr %2, i64 12
  %11 = getelementptr inbounds i8, ptr %3, i64 8
  %wide.trip.count = zext nneg i32 %1 to i64
  br label %12

12:                                               ; preds = %.lr.ph, %51
  %indvars.iv = phi i64 [ 1, %.lr.ph ], [ %indvars.iv.next, %51 ]
  %.03640 = phi i32 [ %5, %.lr.ph ], [ %.1, %51 ]
  %.03739 = phi i32 [ 0, %.lr.ph ], [ %.138, %51 ]
  %13 = getelementptr inbounds i32, ptr %0, i64 %indvars.iv
  %14 = load i32, ptr %13, align 4
  %.not = icmp eq i32 %14, %.03640
  br i1 %.not, label %51, label %15

15:                                               ; preds = %12
  %16 = trunc nuw nsw i64 %indvars.iv to i32
  %17 = sub nsw i32 %16, %.03739
  %.not.i = icmp eq i32 %.03640, 0
  br i1 %.not.i, label %GetEntropyUnrefinedHelper.exit, label %18

18:                                               ; preds = %15
  %19 = mul i32 %17, %.03640
  %20 = load i32, ptr %8, align 4
  %21 = add i32 %20, %19
  store i32 %21, ptr %8, align 4
  %22 = load i32, ptr %9, align 4
  %23 = add nsw i32 %22, %17
  store i32 %23, ptr %9, align 4
  store i32 %.03739, ptr %6, align 4
  %24 = icmp ult i32 %.03640, 256
  br i1 %24, label %25, label %29

25:                                               ; preds = %18
  %26 = zext nneg i32 %.03640 to i64
  %27 = getelementptr inbounds [256 x float], ptr @kSLog2Table, i64 0, i64 %26
  %28 = load float, ptr %27, align 4
  br label %VP8LFastSLog2.exit.i

29:                                               ; preds = %18
  %30 = load ptr, ptr @VP8LFastSLog2Slow, align 8
  %31 = tail call float %30(i32 noundef %.03640) #12
  br label %VP8LFastSLog2.exit.i

VP8LFastSLog2.exit.i:                             ; preds = %29, %25
  %32 = phi float [ %28, %25 ], [ %31, %29 ]
  %33 = sitofp i32 %17 to float
  %34 = load float, ptr %2, align 4
  %35 = fneg float %32
  %36 = tail call float @llvm.fmuladd.f32(float %35, float %33, float %34)
  store float %36, ptr %2, align 4
  %37 = load i32, ptr %10, align 4
  %38 = icmp ult i32 %37, %.03640
  br i1 %38, label %39, label %GetEntropyUnrefinedHelper.exit

39:                                               ; preds = %VP8LFastSLog2.exit.i
  store i32 %.03640, ptr %10, align 4
  br label %GetEntropyUnrefinedHelper.exit

GetEntropyUnrefinedHelper.exit:                   ; preds = %15, %VP8LFastSLog2.exit.i, %39
  %40 = icmp sgt i32 %17, 3
  %41 = zext i1 %40 to i32
  %42 = icmp ne i32 %.03640, 0
  %43 = zext i1 %42 to i64
  %44 = getelementptr inbounds [2 x i32], ptr %3, i64 0, i64 %43
  %45 = load i32, ptr %44, align 4
  %46 = add nsw i32 %45, %41
  store i32 %46, ptr %44, align 4
  %47 = zext i1 %40 to i64
  %48 = getelementptr inbounds [2 x [2 x i32]], ptr %11, i64 0, i64 %43, i64 %47
  %49 = load i32, ptr %48, align 4
  %50 = add nsw i32 %49, %17
  store i32 %50, ptr %48, align 4
  br label %51

51:                                               ; preds = %12, %GetEntropyUnrefinedHelper.exit
  %.138 = phi i32 [ %.03739, %12 ], [ %16, %GetEntropyUnrefinedHelper.exit ]
  %.1 = phi i32 [ %.03640, %12 ], [ %14, %GetEntropyUnrefinedHelper.exit ]
  %indvars.iv.next = add nuw nsw i64 %indvars.iv, 1
  %exitcond.not = icmp eq i64 %indvars.iv.next, %wide.trip.count
  br i1 %exitcond.not, label %._crit_edge, label %12, !llvm.loop !19

._crit_edge:                                      ; preds = %51, %4
  %.037.lcssa = phi i32 [ 0, %4 ], [ %.138, %51 ]
  %.036.lcssa = phi i32 [ %5, %4 ], [ %.1, %51 ]
  %.0.lcssa = phi i32 [ 1, %4 ], [ %1, %51 ]
  %52 = sub nsw i32 %.0.lcssa, %.037.lcssa
  %.not.i18 = icmp eq i32 %.036.lcssa, 0
  br i1 %.not.i18, label %GetEntropyUnrefinedHelper.exit21, label %53

53:                                               ; preds = %._crit_edge
  %54 = mul i32 %52, %.036.lcssa
  %55 = getelementptr inbounds i8, ptr %2, i64 4
  %56 = load i32, ptr %55, align 4
  %57 = add i32 %56, %54
  store i32 %57, ptr %55, align 4
  %58 = getelementptr inbounds i8, ptr %2, i64 8
  %59 = load i32, ptr %58, align 4
  %60 = add nsw i32 %59, %52
  store i32 %60, ptr %58, align 4
  store i32 %.037.lcssa, ptr %6, align 4
  %61 = icmp ult i32 %.036.lcssa, 256
  br i1 %61, label %62, label %66

62:                                               ; preds = %53
  %63 = zext nneg i32 %.036.lcssa to i64
  %64 = getelementptr inbounds [256 x float], ptr @kSLog2Table, i64 0, i64 %63
  %65 = load float, ptr %64, align 4
  br label %VP8LFastSLog2.exit.i19

66:                                               ; preds = %53
  %67 = load ptr, ptr @VP8LFastSLog2Slow, align 8
  %68 = tail call float %67(i32 noundef %.036.lcssa) #12
  br label %VP8LFastSLog2.exit.i19

VP8LFastSLog2.exit.i19:                           ; preds = %66, %62
  %69 = phi float [ %65, %62 ], [ %68, %66 ]
  %70 = sitofp i32 %52 to float
  %71 = load float, ptr %2, align 4
  %72 = fneg float %69
  %73 = tail call float @llvm.fmuladd.f32(float %72, float %70, float %71)
  store float %73, ptr %2, align 4
  %74 = getelementptr inbounds i8, ptr %2, i64 12
  %75 = load i32, ptr %74, align 4
  %76 = icmp ult i32 %75, %.036.lcssa
  br i1 %76, label %77, label %GetEntropyUnrefinedHelper.exit21

77:                                               ; preds = %VP8LFastSLog2.exit.i19
  store i32 %.036.lcssa, ptr %74, align 4
  br label %GetEntropyUnrefinedHelper.exit21

GetEntropyUnrefinedHelper.exit21:                 ; preds = %._crit_edge, %VP8LFastSLog2.exit.i19, %77
  %78 = icmp sgt i32 %52, 3
  %79 = zext i1 %78 to i32
  %80 = icmp ne i32 %.036.lcssa, 0
  %81 = zext i1 %80 to i64
  %82 = getelementptr inbounds [2 x i32], ptr %3, i64 0, i64 %81
  %83 = load i32, ptr %82, align 4
  %84 = add nsw i32 %83, %79
  store i32 %84, ptr %82, align 4
  %85 = getelementptr inbounds i8, ptr %3, i64 8
  %86 = zext i1 %78 to i64
  %87 = getelementptr inbounds [2 x [2 x i32]], ptr %85, i64 0, i64 %81, i64 %86
  %88 = load i32, ptr %87, align 4
  %89 = add nsw i32 %88, %52
  store i32 %89, ptr %87, align 4
  %90 = getelementptr inbounds i8, ptr %2, i64 4
  %91 = load i32, ptr %90, align 4
  %92 = icmp ult i32 %91, 256
  br i1 %92, label %93, label %97

93:                                               ; preds = %GetEntropyUnrefinedHelper.exit21
  %94 = zext nneg i32 %91 to i64
  %95 = getelementptr inbounds [256 x float], ptr @kSLog2Table, i64 0, i64 %94
  %96 = load float, ptr %95, align 4
  br label %VP8LFastSLog2.exit

97:                                               ; preds = %GetEntropyUnrefinedHelper.exit21
  %98 = load ptr, ptr @VP8LFastSLog2Slow, align 8
  %99 = tail call float %98(i32 noundef %91) #12
  br label %VP8LFastSLog2.exit

VP8LFastSLog2.exit:                               ; preds = %93, %97
  %100 = phi float [ %96, %93 ], [ %99, %97 ]
  %101 = load float, ptr %2, align 4
  %102 = fadd float %100, %101
  store float %102, ptr %2, align 4
  ret void
}